target datalayout = "e-m:e-p270:32:32-p271:32:32-p272:64:64-i64:64-i128:128-f80:128-n8:16:32:64-S128"
target triple = "x86_64-pc-linux-gnu"

%struct.Vec_Int_t_ = type { i32, i32, ptr }
%struct.sat_solver_t = type { i32, i32, i32, i32, %struct.Sat_Mem_t_, i32, i32, ptr, ptr, i32, i32, i32, i32, i32, i64, i64, i64, ptr, ptr, i32, i32, %struct.veci_t, ptr, i32, ptr, ptr, ptr, ptr, ptr, ptr, ptr, ptr, %struct.veci_t, %struct.veci_t, %struct.veci_t, %struct.veci_t, ptr, %struct.veci_t, i32, i32, i32, double, double, i32, i32, i32, %struct.stats_t, i32, i32, i32, i32, i32, i64, i64, i64, %struct.veci_t, ptr, i32, i32, i32, %struct.veci_t, %struct.veci_t, i32, i32, i32, ptr, ptr, i32, ptr, i32, i32, %struct.veci_t, %struct.veci_t, %struct.veci_t, ptr, ptr, i32, ptr }
%struct.Sat_Mem_t_ = type { [2 x i32], [2 x i32], [2 x i32], [2 x i32], i32, i32, i32, i32, ptr }
%struct.stats_t = type { i32, i32, i32, i64, i64, i64, i64, i64, i64, i64 }
%struct.veci_t = type { i32, i32, ptr }
%struct.Qbf_Man_t_ = type { ptr, i32, i32, i32, i32, ptr, ptr, ptr, ptr, ptr, ptr, i64, i64 }

; Function Attrs: inlinehint nounwind uwtable
define internal void @Vec_IntGrow(ptr noundef %0, i32 noundef %1) #2 {
  %3 = alloca ptr, align 8
  %4 = alloca i32, align 4
  store ptr %0, ptr %3, align 8, !tbaa !10
  store i32 %1, ptr %4, align 4, !tbaa !8
  %5 = load ptr, ptr %3, align 8, !tbaa !10
  %6 = getelementptr inbounds nuw %struct.Vec_Int_t_, ptr %5, i32 0, i32 0
  %7 = load i32, ptr %6, align 8, !tbaa !19
  %8 = load i32, ptr %4, align 4, !tbaa !8
  %9 = icmp sge i32 %7, %8
  br i1 %9, label %10, label %11

10:                                               ; preds = %2
  br label %36

11:                                               ; preds = %2
  %12 = load ptr, ptr %3, align 8, !tbaa !10
  %13 = getelementptr inbounds nuw %struct.Vec_Int_t_, ptr %12, i32 0, i32 2
  %14 = load ptr, ptr %13, align 8, !tbaa !17
  %15 = icmp ne ptr %14, null
  br i1 %15, label %16, label %24

16:                                               ; preds = %11
  %17 = load ptr, ptr %3, align 8, !tbaa !10
  %18 = getelementptr inbounds nuw %struct.Vec_Int_t_, ptr %17, i32 0, i32 2
  %19 = load ptr, ptr %18, align 8, !tbaa !17
  %20 = load i32, ptr %4, align 4, !tbaa !8
  %21 = sext i32 %20 to i64
  %22 = mul i64 4, %21
  %23 = call ptr @realloc(ptr noundef %19, i64 noundef %22) #18
  br label %29

24:                                               ; preds = %11
  %25 = load i32, ptr %4, align 4, !tbaa !8
  %26 = sext i32 %25 to i64
  %27 = mul i64 4, %26
  %28 = call noalias ptr @malloc(i64 noundef %27) #16
  br label %29

29:                                               ; preds = %24, %16
  %30 = phi ptr [ %23, %16 ], [ %28, %24 ]
  %31 = load ptr, ptr %3, align 8, !tbaa !10
  %32 = getelementptr inbounds nuw %struct.Vec_Int_t_, ptr %31, i32 0, i32 2
  store ptr %30, ptr %32, align 8, !tbaa !17
  %33 = load i32, ptr %4, align 4, !tbaa !8
  %34 = load ptr, ptr %3, align 8, !tbaa !10
  %35 = getelementptr inbounds nuw %struct.Vec_Int_t_, ptr %34, i32 0, i32 0
  store i32 %33, ptr %35, align 8, !tbaa !19
  br label %36

36:                                               ; preds = %29, %10
  ret void
}

; Function Attrs: inlinehint nounwind uwtable
define internal i32 @sat_solver_var_value(ptr noundef %0, i32 noundef %1) #2 {
  %3 = alloca ptr, align 8
  %4 = alloca i32, align 4
  store ptr %0, ptr %3, align 8, !tbaa !82
  store i32 %1, ptr %4, align 4, !tbaa !8
  %5 = load ptr, ptr %3, align 8, !tbaa !82
  %6 = getelementptr inbounds nuw %struct.sat_solver_t, ptr %5, i32 0, i32 36
  %7 = load ptr, ptr %6, align 8, !tbaa !90
  %8 = load i32, ptr %4, align 4, !tbaa !8
  %9 = sext i32 %8 to i64
  %10 = getelementptr inbounds i32, ptr %7, i64 %9
  %11 = load i32, ptr %10, align 4, !tbaa !8
  %12 = icmp eq i32 %11, 1
  %13 = zext i1 %12 to i32
  ret i32 %13
}

; Function Attrs: inlinehint nounwind uwtable
define internal ptr @Vec_IntLimit(ptr noundef %0) #2 {
  %2 = alloca ptr, align 8
  store ptr %0, ptr %2, align 8, !tbaa !10
  %3 = load ptr, ptr %2, align 8, !tbaa !10
  %4 = getelementptr inbounds nuw %struct.Vec_Int_t_, ptr %3, i32 0, i32 2
  %5 = load ptr, ptr %4, align 8, !tbaa !17
  %6 = load ptr, ptr %2, align 8, !tbaa !10
  %7 = getelementptr inbounds nuw %struct.Vec_Int_t_, ptr %6, i32 0, i32 1
  %8 = load i32, ptr %7, align 4, !tbaa !14
  %9 = sext i32 %8 to i64
  %10 = getelementptr inbounds i32, ptr %5, i64 %9
  ret ptr %10
}

; Function Attrs: inlinehint nounwind uwtable
define internal ptr @Vec_IntArray(ptr noundef %0) #2 {
  %2 = alloca ptr, align 8
  store ptr %0, ptr %2, align 8, !tbaa !10
  %3 = load ptr, ptr %2, align 8, !tbaa !10
  %4 = getelementptr inbounds nuw %struct.Vec_Int_t_, ptr %3, i32 0, i32 2
  %5 = load ptr, ptr %4, align 8, !tbaa !17
  ret ptr %5
}

; Function Attrs: inlinehint nounwind uwtable
define internal void @Vec_IntPush(ptr noundef %0, i32 noundef %1) #2 {
  %3 = alloca ptr, align 8
  %4 = alloca i32, align 4
  store ptr %0, ptr %3, align 8, !tbaa !10
  store i32 %1, ptr %4, align 4, !tbaa !8
  %5 = load ptr, ptr %3, align 8, !tbaa !10
  %6 = getelementptr inbounds nuw %struct.Vec_Int_t_, ptr %5, i32 0, i32 1
  %7 = load i32, ptr %6, align 4, !tbaa !14
  %8 = load ptr, ptr %3, align 8, !tbaa !10
  %9 = getelementptr inbounds nuw %struct.Vec_Int_t_, ptr %8, i32 0, i32 0
  %10 = load i32, ptr %9, align 8, !tbaa !19
  %11 = icmp eq i32 %7, %10
  br i1 %11, label %12, label %26

12:                                               ; preds = %2
  %13 = load ptr, ptr %3, align 8, !tbaa !10
  %14 = getelementptr inbounds nuw %struct.Vec_Int_t_, ptr %13, i32 0, i32 0
  %15 = load i32, ptr %14, align 8, !tbaa !19
  %16 = icmp slt i32 %15, 16
  br i1 %16, label %17, label %19

17:                                               ; preds = %12
  %18 = load ptr, ptr %3, align 8, !tbaa !10
  call void @Vec_IntGrow(ptr noundef %18, i32 noundef 16)
  br label %25

19:                                               ; preds = %12
  %20 = load ptr, ptr %3, align 8, !tbaa !10
  %21 = load ptr, ptr %3, align 8, !tbaa !10
  %22 = getelementptr inbounds nuw %struct.Vec_Int_t_, ptr %21, i32 0, i32 0
  %23 = load i32, ptr %22, align 8, !tbaa !19
  %24 = mul nsw i32 2, %23
  call void @Vec_IntGrow(ptr noundef %20, i32 noundef %24)
  br label %25

25:                                               ; preds = %19, %17
  br label %26

26:                                               ; preds = %25, %2
  %27 = load i32, ptr %4, align 4, !tbaa !8
  %28 = load ptr, ptr %3, align 8, !tbaa !10
  %29 = getelementptr inbounds nuw %struct.Vec_Int_t_, ptr %28, i32 0, i32 2
  %30 = load ptr, ptr %29, align 8, !tbaa !17
  %31 = load ptr, ptr %3, align 8, !tbaa !10
  %32 = getelementptr inbounds nuw %struct.Vec_Int_t_, ptr %31, i32 0, i32 1
  %33 = load i32, ptr %32, align 4, !tbaa !14
  %34 = add nsw i32 %33, 1
  store i32 %34, ptr %32, align 4, !tbaa !14
  %35 = sext i32 %33 to i64
  %36 = getelementptr inbounds i32, ptr %30, i64 %35
  store i32 %27, ptr %36, align 4, !tbaa !8
  ret void
}

; Function Attrs: inlinehint nounwind uwtable
define internal i32 @Abc_Var2Lit(i32 noundef %0, i32 noundef %1) #2 {
  %3 = alloca i32, align 4
  %4 = alloca i32, align 4
  store i32 %0, ptr %3, align 4, !tbaa !8
  store i32 %1, ptr %4, align 4, !tbaa !8
  %5 = load i32, ptr %3, align 4, !tbaa !8
  %6 = load i32, ptr %3, align 4, !tbaa !8
  %7 = add nsw i32 %5, %6
  %8 = load i32, ptr %4, align 4, !tbaa !8
  %9 = add nsw i32 %7, %8
  ret i32 %9
}

; Function Attrs: inlinehint nounwind uwtable
define internal i32 @Vec_IntEntry(ptr noundef %0, i32 noundef %1) #2 {
  %3 = alloca ptr, align 8
  %4 = alloca i32, align 4
  store ptr %0, ptr %3, align 8, !tbaa !10
  store i32 %1, ptr %4, align 4, !tbaa !8
  %5 = load ptr, ptr %3, align 8, !tbaa !10
  %6 = getelementptr inbounds nuw %struct.Vec_Int_t_, ptr %5, i32 0, i32 2
  %7 = load ptr, ptr %6, align 8, !tbaa !17
  %8 = load i32, ptr %4, align 4, !tbaa !8
  %9 = sext i32 %8 to i64
  %10 = getelementptr inbounds i32, ptr %7, i64 %9
  %11 = load i32, ptr %10, align 4, !tbaa !8
  ret i32 %11
}

; Function Attrs: inlinehint nounwind uwtable
define internal i32 @Vec_IntSize(ptr noundef %0) #2 {
  %2 = alloca ptr, align 8
  store ptr %0, ptr %2, align 8, !tbaa !10
  %3 = load ptr, ptr %2, align 8, !tbaa !10
  %4 = getelementptr inbounds nuw %struct.Vec_Int_t_, ptr %3, i32 0, i32 1
  %5 = load i32, ptr %4, align 4, !tbaa !14
  ret i32 %5
}

; Function Attrs: inlinehint nounwind uwtable
define internal void @Vec_IntClear(ptr noundef %0) #2 {
  %2 = alloca ptr, align 8
  store ptr %0, ptr %2, align 8, !tbaa !10
  %3 = load ptr, ptr %2, align 8, !tbaa !10
  %4 = getelementptr inbounds nuw %struct.Vec_Int_t_, ptr %3, i32 0, i32 1
  store i32 0, ptr %4, align 4, !tbaa !14
  ret void
}

; Function Attrs: nounwind uwtable
define i32 @Gia_QbfVerify(ptr noundef %0, ptr noundef %1) #0 {
  %3 = alloca ptr, align 8
  %4 = alloca ptr, align 8
  %5 = alloca i32, align 4
  %6 = alloca i32, align 4
  %7 = alloca i32, align 4
  store ptr %0, ptr %3, align 8, !tbaa !104
  store ptr %1, ptr %4, align 8, !tbaa !10
  call void @llvm.lifetime.start.p0(i64 4, ptr %5) #14
  call void @llvm.lifetime.start.p0(i64 4, ptr %6) #14
  call void @llvm.lifetime.start.p0(i64 4, ptr %7) #14
  %8 = load ptr, ptr %3, align 8, !tbaa !104
  %9 = getelementptr inbounds nuw %struct.Qbf_Man_t_, ptr %8, i32 0, i32 10
  %10 = load ptr, ptr %9, align 8, !tbaa !118
  call void @Vec_IntClear(ptr noundef %10)
  store i32 0, ptr %5, align 4, !tbaa !8
  br label %11

11:                                               ; preds = %36, %2
  %12 = load i32, ptr %5, align 4, !tbaa !8
  %13 = load ptr, ptr %4, align 8, !tbaa !10
  %14 = call i32 @Vec_IntSize(ptr noundef %13)
  %15 = icmp slt i32 %12, %14
  br i1 %15, label %16, label %20

16:                                               ; preds = %11
  %17 = load ptr, ptr %4, align 8, !tbaa !10
  %18 = load i32, ptr %5, align 4, !tbaa !8
  %19 = call i32 @Vec_IntEntry(ptr noundef %17, i32 noundef %18)
  store i32 %19, ptr %6, align 4, !tbaa !8
  br label %20

20:                                               ; preds = %16, %11
  %21 = phi i1 [ false, %11 ], [ true, %16 ]
  br i1 %21, label %22, label %39

22:                                               ; preds = %20
  %23 = load ptr, ptr %3, align 8, !tbaa !104
  %24 = getelementptr inbounds nuw %struct.Qbf_Man_t_, ptr %23, i32 0, i32 10
  %25 = load ptr, ptr %24, align 8, !tbaa !118
  %26 = load ptr, ptr %3, align 8, !tbaa !104
  %27 = getelementptr inbounds nuw %struct.Qbf_Man_t_, ptr %26, i32 0, i32 4
  %28 = load i32, ptr %27, align 4, !tbaa !112
  %29 = load i32, ptr %5, align 4, !tbaa !8
  %30 = add nsw i32 %28, %29
  %31 = load i32, ptr %6, align 4, !tbaa !8
  %32 = icmp ne i32 %31, 0
  %33 = xor i1 %32, true
  %34 = zext i1 %33 to i32
  %35 = call i32 @Abc_Var2Lit(i32 noundef %30, i32 noundef %34)
  call void @Vec_IntPush(ptr noundef %25, i32 noundef %35)
  br label %36

36:                                               ; preds = %22
  %37 = load i32, ptr %5, align 4, !tbaa !8
  %38 = add nsw i32 %37, 1
  store i32 %38, ptr %5, align 4, !tbaa !8
  br label %11, !llvm.loop !140

39:                                               ; preds = %20
  %40 = load ptr, ptr %3, align 8, !tbaa !104
  %41 = getelementptr inbounds nuw %struct.Qbf_Man_t_, ptr %40, i32 0, i32 5
  %42 = load ptr, ptr %41, align 8, !tbaa !113
  %43 = load ptr, ptr %3, align 8, !tbaa !104
  %44 = getelementptr inbounds nuw %struct.Qbf_Man_t_, ptr %43, i32 0, i32 10
  %45 = load ptr, ptr %44, align 8, !tbaa !118
  %46 = call ptr @Vec_IntArray(ptr noundef %45)
  %47 = load ptr, ptr %3, align 8, !tbaa !104
  %48 = getelementptr inbounds nuw %struct.Qbf_Man_t_, ptr %47, i32 0, i32 10
  %49 = load ptr, ptr %48, align 8, !tbaa !118
  %50 = call ptr @Vec_IntLimit(ptr noundef %49)
  %51 = call i32 @sat_solver_solve(ptr noundef %42, ptr noundef %46, ptr noundef %50, i64 noundef 0, i64 noundef 0, i64 noundef 0, i64 noundef 0)
  store i32 %51, ptr %7, align 4, !tbaa !8
  %52 = load i32, ptr %7, align 4, !tbaa !8
  %53 = icmp eq i32 %52, 1
  br i1 %53, label %54, label %81

54:                                               ; preds = %39
  %55 = load ptr, ptr %4, align 8, !tbaa !10
  call void @Vec_IntClear(ptr noundef %55)
  store i32 0, ptr %5, align 4, !tbaa !8
  br label %56

56:                                               ; preds = %77, %54
  %57 = load i32, ptr %5, align 4, !tbaa !8
  %58 = load ptr, ptr %3, align 8, !tbaa !104
  %59 = getelementptr inbounds nuw %struct.Qbf_Man_t_, ptr %58, i32 0, i32 2
  %60 = load i32, ptr %59, align 4, !tbaa !110
  %61 = icmp slt i32 %57, %60
  br i1 %61, label %62, label %80

62:                                               ; preds = %56
  %63 = load ptr, ptr %4, align 8, !tbaa !10
  %64 = load ptr, ptr %3, align 8, !tbaa !104
  %65 = getelementptr inbounds nuw %struct.Qbf_Man_t_, ptr %64, i32 0, i32 5
  %66 = load ptr, ptr %65, align 8, !tbaa !113
  %67 = load ptr, ptr %3, align 8, !tbaa !104
  %68 = getelementptr inbounds nuw %struct.Qbf_Man_t_, ptr %67, i32 0, i32 4
  %69 = load i32, ptr %68, align 4, !tbaa !112
  %70 = load ptr, ptr %3, align 8, !tbaa !104
  %71 = getelementptr inbounds nuw %struct.Qbf_Man_t_, ptr %70, i32 0, i32 1
  %72 = load i32, ptr %71, align 8, !tbaa !109
  %73 = add nsw i32 %69, %72
  %74 = load i32, ptr %5, align 4, !tbaa !8
  %75 = add nsw i32 %73, %74
  %76 = call i32 @sat_solver_var_value(ptr noundef %66, i32 noundef %75)
  call void @Vec_IntPush(ptr noundef %63, i32 noundef %76)
  br label %77

77:                                               ; preds = %62
  %78 = load i32, ptr %5, align 4, !tbaa !8
  %79 = add nsw i32 %78, 1
  store i32 %79, ptr %5, align 4, !tbaa !8
  br label %56, !llvm.loop !141

80:                                               ; preds = %56
  br label %81

81:                                               ; preds = %80, %39
  %82 = load i32, ptr %7, align 4, !tbaa !8
  %83 = icmp eq i32 %82, 1
  %84 = select i1 %83, i32 1, i32 0
  call void @llvm.lifetime.end.p0(i64 4, ptr %7) #14
  call void @llvm.lifetime.end.p0(i64 4, ptr %6) #14
  call void @llvm.lifetime.end.p0(i64 4, ptr %5) #14
  ret i32 %84
}