; Function Attrs: nounwind uwtable
define range(i32 0, 2) i32 @Gia_QbfVerify(ptr noundef readonly captures(none) %0, ptr noundef captures(none) %1) local_unnamed_addr #0 {
  %3 = getelementptr inbounds nuw i8, ptr %0, i64 64
  %4 = load ptr, ptr %3, align 8, !tbaa !109
  %5 = getelementptr inbounds nuw i8, ptr %4, i64 4
  store i32 0, ptr %5, align 4, !tbaa !11
  %6 = getelementptr i8, ptr %1, i64 4
  %.val35 = load i32, ptr %6, align 4, !tbaa !11
  %7 = icmp sgt i32 %.val35, 0
  br i1 %7, label %.lr.ph, label %.critedge

.lr.ph:                                           ; preds = %2
  %8 = getelementptr i8, ptr %1, i64 8
  %9 = getelementptr inbounds nuw i8, ptr %0, i64 20
  br label %10

10:                                               ; preds = %.lr.ph, %Vec_IntPush.exit
  %indvars.iv = phi i64 [ 0, %.lr.ph ], [ %indvars.iv.next, %Vec_IntPush.exit ]
  %.val23 = load ptr, ptr %8, align 8, !tbaa !10
  %11 = getelementptr inbounds nuw i32, ptr %.val23, i64 %indvars.iv
  %12 = load i32, ptr %11, align 4, !tbaa !12
  %13 = load ptr, ptr %3, align 8, !tbaa !109
  %14 = load i32, ptr %9, align 4, !tbaa !103
  %15 = trunc nuw nsw i64 %indvars.iv to i32
  %16 = add nsw i32 %14, %15
  %.not = icmp eq i32 %12, 0
  %17 = zext i1 %.not to i32
  %18 = shl nsw i32 %16, 1
  %19 = or disjoint i32 %18, %17
  %20 = getelementptr inbounds nuw i8, ptr %13, i64 4
  %21 = load i32, ptr %20, align 4, !tbaa !11
  %22 = load i32, ptr %13, align 8, !tbaa !3
  %23 = icmp eq i32 %21, %22
  br i1 %23, label %24, label %.Vec_IntGrow.exit10_crit_edge.i

.Vec_IntGrow.exit10_crit_edge.i:                  ; preds = %10
  %.phi.trans.insert.i = getelementptr inbounds nuw i8, ptr %13, i64 8
  %.pre.i = load ptr, ptr %.phi.trans.insert.i, align 8, !tbaa !10
  br label %Vec_IntPush.exit

24:                                               ; preds = %10
  %25 = icmp slt i32 %21, 16
  br i1 %25, label %26, label %34

26:                                               ; preds = %24
  %27 = getelementptr inbounds nuw i8, ptr %13, i64 8
  %28 = load ptr, ptr %27, align 8, !tbaa !10
  %.not9.i.i = icmp eq ptr %28, null
  br i1 %.not9.i.i, label %31, label %29

29:                                               ; preds = %26
  %30 = tail call dereferenceable_or_null(64) ptr @realloc(ptr noundef nonnull %28, i64 noundef 64) #30
  br label %Vec_IntGrow.exit.i

31:                                               ; preds = %26
  %32 = tail call noalias dereferenceable_or_null(64) ptr @malloc(i64 noundef 64) #28
  br label %Vec_IntGrow.exit.i

Vec_IntGrow.exit.i:                               ; preds = %31, %29
  %33 = phi ptr [ %30, %29 ], [ %32, %31 ]
  store ptr %33, ptr %27, align 8, !tbaa !10
  store i32 16, ptr %13, align 8, !tbaa !3
  br label %Vec_IntPush.exit

34:                                               ; preds = %24
  %35 = shl nuw nsw i32 %21, 1
  %36 = getelementptr inbounds nuw i8, ptr %13, i64 8
  %37 = load ptr, ptr %36, align 8, !tbaa !10
  %.not9.i9.i = icmp eq ptr %37, null
  %38 = zext nneg i32 %35 to i64
  %39 = shl nuw nsw i64 %38, 2
  br i1 %.not9.i9.i, label %42, label %40

40:                                               ; preds = %34
  %41 = tail call ptr @realloc(ptr noundef nonnull %37, i64 noundef %39) #30
  br label %44

42:                                               ; preds = %34
  %43 = tail call noalias ptr @malloc(i64 noundef %39) #28
  br label %44

44:                                               ; preds = %42, %40
  %45 = phi ptr [ %41, %40 ], [ %43, %42 ]
  store ptr %45, ptr %36, align 8, !tbaa !10
  store i32 %35, ptr %13, align 8, !tbaa !3
  br label %Vec_IntPush.exit

Vec_IntPush.exit:                                 ; preds = %.Vec_IntGrow.exit10_crit_edge.i, %Vec_IntGrow.exit.i, %44
  %46 = phi ptr [ %.pre.i, %.Vec_IntGrow.exit10_crit_edge.i ], [ %45, %44 ], [ %33, %Vec_IntGrow.exit.i ]
  %47 = load i32, ptr %20, align 4, !tbaa !11
  %48 = add nsw i32 %47, 1
  store i32 %48, ptr %20, align 4, !tbaa !11
  %49 = sext i32 %47 to i64
  %50 = getelementptr inbounds i32, ptr %46, i64 %49
  store i32 %19, ptr %50, align 4, !tbaa !12
  %indvars.iv.next = add nuw nsw i64 %indvars.iv, 1
  %.val = load i32, ptr %6, align 4, !tbaa !11
  %51 = sext i32 %.val to i64
  %52 = icmp slt i64 %indvars.iv.next, %51
  br i1 %52, label %10, label %.critedge.loopexit, !llvm.loop !131

.critedge.loopexit:                               ; preds = %Vec_IntPush.exit
  %.pre = load ptr, ptr %3, align 8, !tbaa !109
  %.phi.trans.insert = getelementptr i8, ptr %.pre, i64 4
  %.val26.pre = load i32, ptr %.phi.trans.insert, align 4, !tbaa !11
  %53 = sext i32 %.val26.pre to i64
  br label %.critedge

.critedge:                                        ; preds = %.critedge.loopexit, %2
  %.val26 = phi i64 [ %53, %.critedge.loopexit ], [ 0, %2 ]
  %54 = phi ptr [ %.pre, %.critedge.loopexit ], [ %4, %2 ]
  %55 = getelementptr inbounds nuw i8, ptr %0, i64 24
  %56 = load ptr, ptr %55, align 8, !tbaa !104
  %57 = getelementptr i8, ptr %54, i64 8
  %.val24 = load ptr, ptr %57, align 8, !tbaa !10
  %58 = getelementptr inbounds i32, ptr %.val24, i64 %.val26
  %59 = tail call i32 @sat_solver_solve(ptr noundef %56, ptr noundef %.val24, ptr noundef %58, i64 noundef 0, i64 noundef 0, i64 noundef 0, i64 noundef 0) #29
  %60 = icmp eq i32 %59, 1
  br i1 %60, label %61, label %.loopexit

61:                                               ; preds = %.critedge
  store i32 0, ptr %6, align 4, !tbaa !11
  %62 = getelementptr inbounds nuw i8, ptr %0, i64 12
  %63 = load i32, ptr %62, align 4, !tbaa !101
  %64 = icmp sgt i32 %63, 0
  br i1 %64, label %.lr.ph38, label %.loopexit

.lr.ph38:                                         ; preds = %61
  %65 = getelementptr inbounds nuw i8, ptr %0, i64 20
  %66 = getelementptr inbounds nuw i8, ptr %0, i64 8
  %.phi.trans.insert.i29 = getelementptr inbounds nuw i8, ptr %1, i64 8
  br label %67

67:                                               ; preds = %.lr.ph38, %Vec_IntPush.exit34
  %.137 = phi i32 [ 0, %.lr.ph38 ], [ %107, %Vec_IntPush.exit34 ]
  %68 = load ptr, ptr %55, align 8, !tbaa !104
  %69 = load i32, ptr %65, align 4, !tbaa !103
  %70 = load i32, ptr %66, align 8, !tbaa !100
  %71 = add i32 %69, %.137
  %72 = add i32 %71, %70
  %73 = getelementptr i8, ptr %68, i64 328
  %.val25 = load ptr, ptr %73, align 8, !tbaa !79
  %74 = sext i32 %72 to i64
  %75 = getelementptr inbounds i32, ptr %.val25, i64 %74
  %76 = load i32, ptr %75, align 4, !tbaa !12
  %77 = icmp eq i32 %76, 1
  %78 = zext i1 %77 to i32
  %79 = load i32, ptr %6, align 4, !tbaa !11
  %80 = load i32, ptr %1, align 8, !tbaa !3
  %81 = icmp eq i32 %79, %80
  br i1 %81, label %82, label %.Vec_IntGrow.exit10_crit_edge.i28

.Vec_IntGrow.exit10_crit_edge.i28:                ; preds = %67
  %.pre.i30 = load ptr, ptr %.phi.trans.insert.i29, align 8, !tbaa !10
  br label %Vec_IntPush.exit34

82:                                               ; preds = %67
  %83 = icmp slt i32 %79, 16
  br i1 %83, label %84, label %91

84:                                               ; preds = %82
  %85 = load ptr, ptr %.phi.trans.insert.i29, align 8, !tbaa !10
  %.not9.i.i32 = icmp eq ptr %85, null
  br i1 %.not9.i.i32, label %88, label %86

86:                                               ; preds = %84
  %87 = tail call dereferenceable_or_null(64) ptr @realloc(ptr noundef nonnull %85, i64 noundef 64) #30
  br label %Vec_IntGrow.exit.i33

88:                                               ; preds = %84
  %89 = tail call noalias dereferenceable_or_null(64) ptr @malloc(i64 noundef 64) #28
  br label %Vec_IntGrow.exit.i33

Vec_IntGrow.exit.i33:                             ; preds = %88, %86
  %90 = phi ptr [ %87, %86 ], [ %89, %88 ]
  store ptr %90, ptr %.phi.trans.insert.i29, align 8, !tbaa !10
  store i32 16, ptr %1, align 8, !tbaa !3
  br label %Vec_IntPush.exit34

91:                                               ; preds = %82
  %92 = shl nuw nsw i32 %79, 1
  %93 = load ptr, ptr %.phi.trans.insert.i29, align 8, !tbaa !10
  %.not9.i9.i31 = icmp eq ptr %93, null
  %94 = zext nneg i32 %92 to i64
  %95 = shl nuw nsw i64 %94, 2
  br i1 %.not9.i9.i31, label %98, label %96

96:                                               ; preds = %91
  %97 = tail call ptr @realloc(ptr noundef nonnull %93, i64 noundef %95) #30
  br label %100

98:                                               ; preds = %91
  %99 = tail call noalias ptr @malloc(i64 noundef %95) #28
  br label %100

100:                                              ; preds = %98, %96
  %101 = phi ptr [ %97, %96 ], [ %99, %98 ]
  store ptr %101, ptr %.phi.trans.insert.i29, align 8, !tbaa !10
  store i32 %92, ptr %1, align 8, !tbaa !3
  br label %Vec_IntPush.exit34

Vec_IntPush.exit34:                               ; preds = %.Vec_IntGrow.exit10_crit_edge.i28, %Vec_IntGrow.exit.i33, %100
  %102 = phi ptr [ %.pre.i30, %.Vec_IntGrow.exit10_crit_edge.i28 ], [ %101, %100 ], [ %90, %Vec_IntGrow.exit.i33 ]
  %103 = load i32, ptr %6, align 4, !tbaa !11
  %104 = add nsw i32 %103, 1
  store i32 %104, ptr %6, align 4, !tbaa !11
  %105 = sext i32 %103 to i64
  %106 = getelementptr inbounds i32, ptr %102, i64 %105
  store i32 %78, ptr %106, align 4, !tbaa !12
  %107 = add nuw nsw i32 %.137, 1
  %108 = load i32, ptr %62, align 4, !tbaa !101
  %109 = icmp slt i32 %107, %108
  br i1 %109, label %67, label %.loopexit, !llvm.loop !132

.loopexit:                                        ; preds = %Vec_IntPush.exit34, %61, %.critedge
  %110 = zext i1 %60 to i32
  ret i32 %110
}